target datalayout = "e-m:e-p270:32:32-p271:32:32-p272:64:64-i64:64-i128:128-f80:128-n8:16:32:64-S128"
target triple = "x86_64-pc-linux-gnu"

@hf_mip6_opt_bi_bid = internal global i32 0, align 4
@hf_mip6_opt_bi_status = internal global i32 0, align 4
@hf_mip6_bi_h_flag = internal global i32 0, align 4
@hf_mip6_bi_coa_ipv4 = internal global i32 0, align 4
@hf_mip6_bi_coa_ipv6 = internal global i32 0, align 4
@ett_pmip6_opt_bi = internal global i32 0, align 4
@proto_mip6_option_bi = internal global i32 0, align 4

; Function Attrs: null_pointer_is_valid sspstrong uwtable
define internal i32 @dissect_pmip6_opt_bi(ptr noundef %0, ptr noundef %1, ptr noundef %2, ptr noundef %3) #0 {
  %5 = alloca ptr, align 8
  %6 = alloca ptr, align 8
  %7 = alloca ptr, align 8
  %8 = alloca ptr, align 8
  %9 = alloca ptr, align 8
  %10 = alloca ptr, align 8
  %11 = alloca i32, align 4
  %12 = alloca i32, align 4
  store ptr %0, ptr %5, align 8
  store ptr %1, ptr %6, align 8
  store ptr %2, ptr %7, align 8
  store ptr %3, ptr %8, align 8
  call void @llvm.lifetime.start.p0(i64 8, ptr %9) #6
  call void @llvm.lifetime.start.p0(i64 8, ptr %10) #6
  call void @llvm.lifetime.start.p0(i64 4, ptr %11) #6
  %13 = load ptr, ptr %5, align 8
  %14 = call i32 @tvb_reported_length(ptr noundef %13)
  %15 = sub i32 %14, 2
  store i32 %15, ptr %11, align 4
  call void @llvm.lifetime.start.p0(i64 4, ptr %12) #6
  store i32 2, ptr %12, align 4
  %16 = load ptr, ptr %7, align 8
  %17 = load ptr, ptr %6, align 8
  %18 = load ptr, ptr %5, align 8
  %19 = load i32, ptr @proto_mip6_option_bi, align 4
  %20 = load i32, ptr @ett_pmip6_opt_bi, align 4
  %21 = load i32, ptr %11, align 4
  %22 = call ptr @mip6_var_option_header(ptr noundef %16, ptr noundef %17, ptr noundef %18, i32 noundef %19, i32 noundef %20, ptr noundef %10, i32 noundef %21, i32 noundef 4)
  store ptr %22, ptr %9, align 8
  %23 = load ptr, ptr %9, align 8
  %24 = load i32, ptr @hf_mip6_opt_bi_bid, align 4
  %25 = load ptr, ptr %5, align 8
  %26 = load i32, ptr %12, align 4
  %27 = call ptr @proto_tree_add_item(ptr noundef %23, i32 noundef %24, ptr noundef %25, i32 noundef %26, i32 noundef 2, i32 noundef 0)
  %28 = load i32, ptr %12, align 4
  %29 = add i32 %28, 2
  store i32 %29, ptr %12, align 4
  %30 = load ptr, ptr %9, align 8
  %31 = load i32, ptr @hf_mip6_opt_bi_status, align 4
  %32 = load ptr, ptr %5, align 8
  %33 = load i32, ptr %12, align 4
  %34 = call ptr @proto_tree_add_item(ptr noundef %30, i32 noundef %31, ptr noundef %32, i32 noundef %33, i32 noundef 1, i32 noundef 0)
  %35 = load i32, ptr %12, align 4
  %36 = add i32 %35, 1
  store i32 %36, ptr %12, align 4
  %37 = load ptr, ptr %9, align 8
  %38 = load i32, ptr @hf_mip6_bi_h_flag, align 4
  %39 = load ptr, ptr %5, align 8
  %40 = load i32, ptr %12, align 4
  %41 = call ptr @proto_tree_add_item(ptr noundef %37, i32 noundef %38, ptr noundef %39, i32 noundef %40, i32 noundef 1, i32 noundef 0)
  %42 = load i32, ptr %12, align 4
  %43 = add i32 %42, 1
  store i32 %43, ptr %12, align 4
  %44 = load i32, ptr %11, align 4
  %45 = icmp eq i32 %44, 8
  br i1 %45, label %46, label %52

46:                                               ; preds = %4
  %47 = load ptr, ptr %9, align 8
  %48 = load i32, ptr @hf_mip6_bi_coa_ipv4, align 4
  %49 = load ptr, ptr %5, align 8
  %50 = load i32, ptr %12, align 4
  %51 = call ptr @proto_tree_add_item(ptr noundef %47, i32 noundef %48, ptr noundef %49, i32 noundef %50, i32 noundef 4, i32 noundef 0)
  br label %62

52:                                               ; preds = %4
  %53 = load i32, ptr %11, align 4
  %54 = icmp eq i32 %53, 20
  br i1 %54, label %55, label %61

55:                                               ; preds = %52
  %56 = load ptr, ptr %9, align 8
  %57 = load i32, ptr @hf_mip6_bi_coa_ipv6, align 4
  %58 = load ptr, ptr %5, align 8
  %59 = load i32, ptr %12, align 4
  %60 = call ptr @proto_tree_add_item(ptr noundef %56, i32 noundef %57, ptr noundef %58, i32 noundef %59, i32 noundef 16, i32 noundef 0)
  br label %61

61:                                               ; preds = %55, %52
  br label %62

62:                                               ; preds = %61, %46
  %63 = load ptr, ptr %5, align 8
  %64 = call i32 @tvb_captured_length(ptr noundef %63)
  call void @llvm.lifetime.end.p0(i64 4, ptr %12) #6
  call void @llvm.lifetime.end.p0(i64 4, ptr %11) #6
  call void @llvm.lifetime.end.p0(i64 8, ptr %10) #6
  call void @llvm.lifetime.end.p0(i64 8, ptr %9) #6
  ret i32 %64
}