; Function Attrs: null_pointer_is_valid sspstrong uwtable
define internal i32 @dissect_pmip6_opt_bi(ptr noundef %0, ptr noundef %1, ptr noundef %2, ptr readnone captures(none) %3) #0 {
  %5 = alloca ptr, align 8
  call void @llvm.lifetime.start.p0(i64 8, ptr nonnull %5) #5
  %6 = tail call i32 @tvb_reported_length(ptr noundef %0)
  %7 = add i32 %6, -2
  %8 = load i32, ptr @proto_mip6_option_bi, align 4
  %9 = load i32, ptr @ett_pmip6_opt_bi, align 4
  %10 = call fastcc ptr @mip6_var_option_header(ptr noundef %2, ptr noundef %1, ptr noundef %0, i32 noundef %8, i32 noundef %9, ptr noundef nonnull %5, i32 noundef %7, i32 noundef 4)
  %11 = load i32, ptr @hf_mip6_opt_bi_bid, align 4
  %12 = tail call ptr @proto_tree_add_item(ptr noundef %10, i32 noundef %11, ptr noundef %0, i32 noundef 2, i32 noundef 2, i32 noundef 0)
  %13 = load i32, ptr @hf_mip6_opt_bi_status, align 4
  %14 = tail call ptr @proto_tree_add_item(ptr noundef %10, i32 noundef %13, ptr noundef %0, i32 noundef 4, i32 noundef 1, i32 noundef 0)
  %15 = load i32, ptr @hf_mip6_bi_h_flag, align 4
  %16 = tail call ptr @proto_tree_add_item(ptr noundef %10, i32 noundef %15, ptr noundef %0, i32 noundef 5, i32 noundef 1, i32 noundef 0)
  switch i32 %6, label %20 [
    i32 10, label %.sink.split
    i32 22, label %17
  ]

17:                                               ; preds = %4
  br label %.sink.split

.sink.split:                                      ; preds = %4, %17
  %hf_mip6_bi_coa_ipv6.sink = phi ptr [ @hf_mip6_bi_coa_ipv6, %17 ], [ @hf_mip6_bi_coa_ipv4, %4 ]
  %.sink25 = phi i32 [ 16, %17 ], [ 4, %4 ]
  %18 = load i32, ptr %hf_mip6_bi_coa_ipv6.sink, align 4
  %19 = tail call ptr @proto_tree_add_item(ptr noundef %10, i32 noundef %18, ptr noundef %0, i32 noundef 6, i32 noundef %.sink25, i32 noundef 0)
  br label %20

20:                                               ; preds = %.sink.split, %4
  %21 = tail call i32 @tvb_captured_length(ptr noundef %0)
  call void @llvm.lifetime.end.p0(i64 8, ptr nonnull %5) #5
  ret i32 %21
}